target datalayout = "e-m:e-p270:32:32-p271:32:32-p272:64:64-i64:64-i128:128-f80:128-n8:16:32:64-S128"
target triple = "x86_64-pc-linux-gnu"

%"class.xgboost::common::Span.71" = type { i64, ptr }
%"class.xgboost::common::Span.75" = type { i64, ptr }
%"struct.xgboost::common::(anonymous namespace)::QuantileAllreduce" = type <{ %"class.xgboost::common::Span.75", %"class.xgboost::common::Span.71", %"class.xgboost::common::Span.71", i32, [4 x i8] }>

; Function Attrs: mustprogress nounwind uwtable
define linkonce_odr void @_ZN7xgboost6common4SpanImLm18446744073709551615EEC2EPmm(ptr noundef nonnull align 8 dereferenceable(16) %0, ptr noundef %1, i64 noundef %2) unnamed_addr #5 comdat align 2 {
  %4 = alloca ptr, align 8
  %5 = alloca ptr, align 8
  %6 = alloca i64, align 8
  store ptr %0, ptr %4, align 8
  store ptr %1, ptr %5, align 8
  store i64 %2, ptr %6, align 8
  %7 = load ptr, ptr %4, align 8
  %8 = getelementptr inbounds %"class.xgboost::common::Span.71", ptr %7, i32 0, i32 0
  %9 = load i64, ptr %6, align 8
  store i64 %9, ptr %8, align 8
  %10 = getelementptr inbounds %"class.xgboost::common::Span.71", ptr %7, i32 0, i32 1
  %11 = load ptr, ptr %5, align 8
  store ptr %11, ptr %10, align 8
  %12 = load ptr, ptr %5, align 8
  %13 = icmp ne ptr %12, null
  br i1 %13, label %17, label %14

14:                                               ; preds = %3
  %15 = load i64, ptr %6, align 8
  %16 = icmp eq i64 %15, 0
  br label %17

17:                                               ; preds = %14, %3
  %18 = phi i1 [ true, %3 ], [ %16, %14 ]
  br i1 %18, label %19, label %20

19:                                               ; preds = %17
  br label %22

20:                                               ; preds = %17
  call void @_ZSt9terminatev() #20
  unreachable

21:                                               ; No predecessors!
  br label %22

22:                                               ; preds = %21, %19
  ret void
}

; Function Attrs: mustprogress nounwind uwtable
define linkonce_odr void @_ZN7xgboost6common4SpanIfLm18446744073709551615EEC2EPfm(ptr noundef nonnull align 8 dereferenceable(16) %0, ptr noundef %1, i64 noundef %2) unnamed_addr #5 comdat align 2 {
  %4 = alloca ptr, align 8
  %5 = alloca ptr, align 8
  %6 = alloca i64, align 8
  store ptr %0, ptr %4, align 8
  store ptr %1, ptr %5, align 8
  store i64 %2, ptr %6, align 8
  %7 = load ptr, ptr %4, align 8
  %8 = getelementptr inbounds %"class.xgboost::common::Span.75", ptr %7, i32 0, i32 0
  %9 = load i64, ptr %6, align 8
  store i64 %9, ptr %8, align 8
  %10 = getelementptr inbounds %"class.xgboost::common::Span.75", ptr %7, i32 0, i32 1
  %11 = load ptr, ptr %5, align 8
  store ptr %11, ptr %10, align 8
  %12 = load ptr, ptr %5, align 8
  %13 = icmp ne ptr %12, null
  br i1 %13, label %17, label %14

14:                                               ; preds = %3
  %15 = load i64, ptr %6, align 8
  %16 = icmp eq i64 %15, 0
  br label %17

17:                                               ; preds = %14, %3
  %18 = phi i1 [ true, %3 ], [ %16, %14 ]
  br i1 %18, label %19, label %20

19:                                               ; preds = %17
  br label %22

20:                                               ; preds = %17
  call void @_ZSt9terminatev() #20
  unreachable

21:                                               ; No predecessors!
  br label %22

22:                                               ; preds = %21, %19
  ret void
}

; Function Attrs: mustprogress nounwind uwtable
define linkonce_odr noundef ptr @_ZNK7xgboost6common4SpanIfLm18446744073709551615EE4dataEv(ptr noundef nonnull align 8 dereferenceable(16) %0) #5 comdat align 2 {
  %2 = alloca ptr, align 8
  store ptr %0, ptr %2, align 8
  %3 = load ptr, ptr %2, align 8
  %4 = getelementptr inbounds %"class.xgboost::common::Span.75", ptr %3, i32 0, i32 1
  %5 = load ptr, ptr %4, align 8
  ret ptr %5
}

; Function Attrs: mustprogress nounwind uwtable
define linkonce_odr noundef i64 @_ZNK7xgboost6common4SpanIfLm18446744073709551615EE4sizeEv(ptr noundef nonnull align 8 dereferenceable(16) %0) #5 comdat align 2 {
  %2 = alloca ptr, align 8
  store ptr %0, ptr %2, align 8
  %3 = load ptr, ptr %2, align 8
  %4 = getelementptr inbounds %"class.xgboost::common::Span.75", ptr %3, i32 0, i32 0
  %5 = load i64, ptr %4, align 8
  ret i64 %5
}

; Function Attrs: mustprogress nounwind uwtable
define linkonce_odr noundef ptr @_ZNK7xgboost6common4SpanImLm18446744073709551615EE4dataEv(ptr noundef nonnull align 8 dereferenceable(16) %0) #5 comdat align 2 {
  %2 = alloca ptr, align 8
  store ptr %0, ptr %2, align 8
  %3 = load ptr, ptr %2, align 8
  %4 = getelementptr inbounds %"class.xgboost::common::Span.71", ptr %3, i32 0, i32 1
  %5 = load ptr, ptr %4, align 8
  ret ptr %5
}

; Function Attrs: mustprogress nounwind uwtable
define linkonce_odr noundef i64 @_ZNK7xgboost6common4SpanImLm18446744073709551615EE4sizeEv(ptr noundef nonnull align 8 dereferenceable(16) %0) #5 comdat align 2 {
  %2 = alloca ptr, align 8
  store ptr %0, ptr %2, align 8
  %3 = load ptr, ptr %2, align 8
  %4 = getelementptr inbounds %"class.xgboost::common::Span.71", ptr %3, i32 0, i32 0
  %5 = load i64, ptr %4, align 8
  ret i64 %5
}

; Function Attrs: mustprogress nounwind uwtable
define linkonce_odr void @_ZN7xgboost6common4SpanIfLm18446744073709551615EED2Ev(ptr noundef nonnull align 8 dereferenceable(16) %0) unnamed_addr #5 comdat align 2 {
  %2 = alloca ptr, align 8
  store ptr %0, ptr %2, align 8
  ret void
}

; Function Attrs: mustprogress nounwind uwtable
define linkonce_odr void @_ZN7xgboost6common4SpanImLm18446744073709551615EED2Ev(ptr noundef nonnull align 8 dereferenceable(16) %0) unnamed_addr #5 comdat align 2 {
  %2 = alloca ptr, align 8
  store ptr %0, ptr %2, align 8
  ret void
}

; Function Attrs: mustprogress uwtable
define linkonce_odr void @_ZNK7xgboost6common4SpanImLm18446744073709551615EE7subspanEmm(ptr dead_on_unwind noalias writable sret(%"class.xgboost::common::Span.71") align 8 %0, ptr noundef nonnull align 8 dereferenceable(16) %1, i64 noundef %2, i64 noundef %3) #4 comdat align 2 {
  %5 = alloca ptr, align 8
  %6 = alloca ptr, align 8
  %7 = alloca i64, align 8
  %8 = alloca i64, align 8
  store ptr %0, ptr %5, align 8
  store ptr %1, ptr %6, align 8
  store i64 %2, ptr %7, align 8
  store i64 %3, ptr %8, align 8
  %9 = load ptr, ptr %6, align 8
  %10 = load i64, ptr %8, align 8
  %11 = icmp eq i64 %10, -1
  br i1 %11, label %12, label %16

12:                                               ; preds = %4
  %13 = load i64, ptr %7, align 8
  %14 = call noundef i64 @_ZNK7xgboost6common4SpanImLm18446744073709551615EE4sizeEv(ptr noundef nonnull align 8 dereferenceable(16) %9) #3
  %15 = icmp ule i64 %13, %14
  br label %22

16:                                               ; preds = %4
  %17 = load i64, ptr %7, align 8
  %18 = load i64, ptr %8, align 8
  %19 = add i64 %17, %18
  %20 = call noundef i64 @_ZNK7xgboost6common4SpanImLm18446744073709551615EE4sizeEv(ptr noundef nonnull align 8 dereferenceable(16) %9) #3
  %21 = icmp ule i64 %19, %20
  br label %22

22:                                               ; preds = %16, %12
  %23 = phi i1 [ %15, %12 ], [ %21, %16 ]
  br i1 %23, label %24, label %25

24:                                               ; preds = %22
  br label %27

25:                                               ; preds = %22
  call void @_ZSt9terminatev() #20
  unreachable

26:                                               ; No predecessors!
  br label %27

27:                                               ; preds = %26, %24
  %28 = call noundef ptr @_ZNK7xgboost6common4SpanImLm18446744073709551615EE4dataEv(ptr noundef nonnull align 8 dereferenceable(16) %9) #3
  %29 = load i64, ptr %7, align 8
  %30 = getelementptr inbounds i64, ptr %28, i64 %29
  %31 = load i64, ptr %8, align 8
  %32 = icmp eq i64 %31, -1
  br i1 %32, label %33, label %37

33:                                               ; preds = %27
  %34 = call noundef i64 @_ZNK7xgboost6common4SpanImLm18446744073709551615EE4sizeEv(ptr noundef nonnull align 8 dereferenceable(16) %9) #3
  %35 = load i64, ptr %7, align 8
  %36 = sub i64 %34, %35
  br label %39

37:                                               ; preds = %27
  %38 = load i64, ptr %8, align 8
  br label %39

39:                                               ; preds = %37, %33
  %40 = phi i64 [ %36, %33 ], [ %38, %37 ]
  call void @_ZN7xgboost6common4SpanImLm18446744073709551615EEC2EPmm(ptr noundef nonnull align 8 dereferenceable(16) %0, ptr noundef %30, i64 noundef %40)
  ret void
}

; Function Attrs: mustprogress uwtable
define linkonce_odr void @_ZNK7xgboost6common4SpanIfLm18446744073709551615EE7subspanEmm(ptr dead_on_unwind noalias writable sret(%"class.xgboost::common::Span.75") align 8 %0, ptr noundef nonnull align 8 dereferenceable(16) %1, i64 noundef %2, i64 noundef %3) #4 comdat align 2 {
  %5 = alloca ptr, align 8
  %6 = alloca ptr, align 8
  %7 = alloca i64, align 8
  %8 = alloca i64, align 8
  store ptr %0, ptr %5, align 8
  store ptr %1, ptr %6, align 8
  store i64 %2, ptr %7, align 8
  store i64 %3, ptr %8, align 8
  %9 = load ptr, ptr %6, align 8
  %10 = load i64, ptr %8, align 8
  %11 = icmp eq i64 %10, -1
  br i1 %11, label %12, label %16

12:                                               ; preds = %4
  %13 = load i64, ptr %7, align 8
  %14 = call noundef i64 @_ZNK7xgboost6common4SpanIfLm18446744073709551615EE4sizeEv(ptr noundef nonnull align 8 dereferenceable(16) %9) #3
  %15 = icmp ule i64 %13, %14
  br label %22

16:                                               ; preds = %4
  %17 = load i64, ptr %7, align 8
  %18 = load i64, ptr %8, align 8
  %19 = add i64 %17, %18
  %20 = call noundef i64 @_ZNK7xgboost6common4SpanIfLm18446744073709551615EE4sizeEv(ptr noundef nonnull align 8 dereferenceable(16) %9) #3
  %21 = icmp ule i64 %19, %20
  br label %22

22:                                               ; preds = %16, %12
  %23 = phi i1 [ %15, %12 ], [ %21, %16 ]
  br i1 %23, label %24, label %25

24:                                               ; preds = %22
  br label %27

25:                                               ; preds = %22
  call void @_ZSt9terminatev() #20
  unreachable

26:                                               ; No predecessors!
  br label %27

27:                                               ; preds = %26, %24
  %28 = call noundef ptr @_ZNK7xgboost6common4SpanIfLm18446744073709551615EE4dataEv(ptr noundef nonnull align 8 dereferenceable(16) %9) #3
  %29 = load i64, ptr %7, align 8
  %30 = getelementptr inbounds float, ptr %28, i64 %29
  %31 = load i64, ptr %8, align 8
  %32 = icmp eq i64 %31, -1
  br i1 %32, label %33, label %37

33:                                               ; preds = %27
  %34 = call noundef i64 @_ZNK7xgboost6common4SpanIfLm18446744073709551615EE4sizeEv(ptr noundef nonnull align 8 dereferenceable(16) %9) #3
  %35 = load i64, ptr %7, align 8
  %36 = sub i64 %34, %35
  br label %39

37:                                               ; preds = %27
  %38 = load i64, ptr %8, align 8
  br label %39

39:                                               ; preds = %37, %33
  %40 = phi i64 [ %36, %33 ], [ %38, %37 ]
  call void @_ZN7xgboost6common4SpanIfLm18446744073709551615EEC2EPfm(ptr noundef nonnull align 8 dereferenceable(16) %0, ptr noundef %30, i64 noundef %40)
  ret void
}

; Function Attrs: mustprogress nounwind uwtable
define linkonce_odr noundef nonnull align 8 dereferenceable(8) ptr @_ZNK7xgboost6common4SpanImLm18446744073709551615EEixEm(ptr noundef nonnull align 8 dereferenceable(16) %0, i64 noundef %1) #5 comdat align 2 {
  %3 = alloca ptr, align 8
  %4 = alloca i64, align 8
  store ptr %0, ptr %3, align 8
  store i64 %1, ptr %4, align 8
  %5 = load ptr, ptr %3, align 8
  %6 = load i64, ptr %4, align 8
  %7 = call noundef i64 @_ZNK7xgboost6common4SpanImLm18446744073709551615EE4sizeEv(ptr noundef nonnull align 8 dereferenceable(16) %5) #3
  %8 = icmp ult i64 %6, %7
  br i1 %8, label %9, label %10

9:                                                ; preds = %2
  br label %12

10:                                               ; preds = %2
  call void @_ZSt9terminatev() #20
  unreachable

11:                                               ; No predecessors!
  br label %12

12:                                               ; preds = %11, %9
  %13 = call noundef ptr @_ZNK7xgboost6common4SpanImLm18446744073709551615EE4dataEv(ptr noundef nonnull align 8 dereferenceable(16) %5) #3
  %14 = load i64, ptr %4, align 8
  %15 = getelementptr inbounds i64, ptr %13, i64 %14
  ret ptr %15
}

; Function Attrs: mustprogress uwtable
define internal void @_ZNK7xgboost6common12_GLOBAL__N_117QuantileAllreduceIfE6ValuesEij(ptr dead_on_unwind noalias writable sret(%"class.xgboost::common::Span.75") align 8 %0, ptr noundef nonnull align 8 dereferenceable(52) %1, i32 noundef %2, i32 noundef %3) #4 align 2 personality ptr @__gxx_personality_v0 {
  %5 = alloca ptr, align 8
  %6 = alloca ptr, align 8
  %7 = alloca i32, align 4
  %8 = alloca i32, align 4
  %9 = alloca i64, align 8
  %10 = alloca %"class.xgboost::common::Span.75", align 8
  %11 = alloca i32, align 4
  %12 = alloca %"class.xgboost::common::Span.71", align 8
  %13 = alloca ptr, align 8
  %14 = alloca i32, align 4
  %15 = alloca i64, align 8
  %16 = alloca i64, align 8
  store ptr %0, ptr %5, align 8
  store ptr %1, ptr %6, align 8
  store i32 %2, ptr %7, align 4
  store i32 %3, ptr %8, align 4
  %17 = load ptr, ptr %6, align 8
  %18 = getelementptr inbounds %"struct.xgboost::common::(anonymous namespace)::QuantileAllreduce", ptr %17, i32 0, i32 1
  %19 = load i32, ptr %7, align 4
  %20 = add nsw i32 %19, 1
  %21 = sext i32 %20 to i64
  %22 = call noundef nonnull align 8 dereferenceable(8) ptr @_ZNK7xgboost6common4SpanImLm18446744073709551615EEixEm(ptr noundef nonnull align 8 dereferenceable(16) %18, i64 noundef %21)
  %23 = load i64, ptr %22, align 8
  %24 = getelementptr inbounds %"struct.xgboost::common::(anonymous namespace)::QuantileAllreduce", ptr %17, i32 0, i32 1
  %25 = load i32, ptr %7, align 4
  %26 = sext i32 %25 to i64
  %27 = call noundef nonnull align 8 dereferenceable(8) ptr @_ZNK7xgboost6common4SpanImLm18446744073709551615EEixEm(ptr noundef nonnull align 8 dereferenceable(16) %24, i64 noundef %26)
  %28 = load i64, ptr %27, align 8
  %29 = sub i64 %23, %28
  store i64 %29, ptr %9, align 8
  %30 = getelementptr inbounds %"struct.xgboost::common::(anonymous namespace)::QuantileAllreduce", ptr %17, i32 0, i32 0
  %31 = getelementptr inbounds %"struct.xgboost::common::(anonymous namespace)::QuantileAllreduce", ptr %17, i32 0, i32 1
  %32 = load i32, ptr %7, align 4
  %33 = sext i32 %32 to i64
  %34 = call noundef nonnull align 8 dereferenceable(8) ptr @_ZNK7xgboost6common4SpanImLm18446744073709551615EEixEm(ptr noundef nonnull align 8 dereferenceable(16) %31, i64 noundef %33)
  %35 = load i64, ptr %34, align 8
  %36 = load i64, ptr %9, align 8
  call void @_ZNK7xgboost6common4SpanIfLm18446744073709551615EE7subspanEmm(ptr dead_on_unwind writable sret(%"class.xgboost::common::Span.75") align 8 %10, ptr noundef nonnull align 8 dereferenceable(16) %30, i64 noundef %35, i64 noundef %36)
  %37 = getelementptr inbounds %"struct.xgboost::common::(anonymous namespace)::QuantileAllreduce", ptr %17, i32 0, i32 3
  %38 = load i32, ptr %37, align 8
  %39 = add i32 %38, 1
  store i32 %39, ptr %11, align 4
  %40 = getelementptr inbounds %"struct.xgboost::common::(anonymous namespace)::QuantileAllreduce", ptr %17, i32 0, i32 2
  %41 = load i32, ptr %11, align 4
  %42 = load i32, ptr %7, align 4
  %43 = mul i32 %41, %42
  %44 = zext i32 %43 to i64
  %45 = load i32, ptr %11, align 4
  %46 = zext i32 %45 to i64
  invoke void @_ZNK7xgboost6common4SpanImLm18446744073709551615EE7subspanEmm(ptr dead_on_unwind writable sret(%"class.xgboost::common::Span.71") align 8 %12, ptr noundef nonnull align 8 dereferenceable(16) %40, i64 noundef %44, i64 noundef %46)
          to label %47 unwind label %62

47:                                               ; preds = %4
  %48 = load i32, ptr %8, align 4
  %49 = zext i32 %48 to i64
  %50 = call noundef nonnull align 8 dereferenceable(8) ptr @_ZNK7xgboost6common4SpanImLm18446744073709551615EEixEm(ptr noundef nonnull align 8 dereferenceable(16) %12, i64 noundef %49)
  %51 = load i64, ptr %50, align 8
  store i64 %51, ptr %15, align 8
  %52 = load i32, ptr %8, align 4
  %53 = add i32 %52, 1
  %54 = zext i32 %53 to i64
  %55 = call noundef nonnull align 8 dereferenceable(8) ptr @_ZNK7xgboost6common4SpanImLm18446744073709551615EEixEm(ptr noundef nonnull align 8 dereferenceable(16) %12, i64 noundef %54)
  %56 = load i64, ptr %55, align 8
  %57 = load i64, ptr %15, align 8
  %58 = sub i64 %56, %57
  store i64 %58, ptr %16, align 8
  %59 = load i64, ptr %15, align 8
  %60 = load i64, ptr %16, align 8
  invoke void @_ZNK7xgboost6common4SpanIfLm18446744073709551615EE7subspanEmm(ptr dead_on_unwind writable sret(%"class.xgboost::common::Span.75") align 8 %0, ptr noundef nonnull align 8 dereferenceable(16) %10, i64 noundef %59, i64 noundef %60)
          to label %61 unwind label %66

61:                                               ; preds = %47
  call void @_ZN7xgboost6common4SpanImLm18446744073709551615EED2Ev(ptr noundef nonnull align 8 dereferenceable(16) %12) #3
  call void @_ZN7xgboost6common4SpanIfLm18446744073709551615EED2Ev(ptr noundef nonnull align 8 dereferenceable(16) %10) #3
  ret void

62:                                               ; preds = %4
  %63 = landingpad { ptr, i32 }
          cleanup
  %64 = extractvalue { ptr, i32 } %63, 0
  store ptr %64, ptr %13, align 8
  %65 = extractvalue { ptr, i32 } %63, 1
  store i32 %65, ptr %14, align 4
  br label %70

66:                                               ; preds = %47
  %67 = landingpad { ptr, i32 }
          cleanup
  %68 = extractvalue { ptr, i32 } %67, 0
  store ptr %68, ptr %13, align 8
  %69 = extractvalue { ptr, i32 } %67, 1
  store i32 %69, ptr %14, align 4
  call void @_ZN7xgboost6common4SpanImLm18446744073709551615EED2Ev(ptr noundef nonnull align 8 dereferenceable(16) %12) #3
  br label %70

70:                                               ; preds = %66, %62
  call void @_ZN7xgboost6common4SpanIfLm18446744073709551615EED2Ev(ptr noundef nonnull align 8 dereferenceable(16) %10) #3
  br label %71

71:                                               ; preds = %70
  %72 = load ptr, ptr %13, align 8
  %73 = load i32, ptr %14, align 4
  %74 = insertvalue { ptr, i32 } poison, ptr %72, 0
  %75 = insertvalue { ptr, i32 } %74, i32 %73, 1
  resume { ptr, i32 } %75
}